; Function Attrs: mustprogress nounwind uwtable
define dso_local void @_ZN5vcpkg14SchemedVersionC2ENS_13VersionSchemeEONS_7VersionE(ptr noundef nonnull align 8 dereferenceable(48) %0, i32 noundef %1, ptr noundef nonnull align 8 dereferenceable(36) %2) unnamed_addr #0 align 2 {
  store i32 %1, ptr %0, align 8
  %4 = getelementptr inbounds i8, ptr %0, i64 8
  tail call void @_ZNSt7__cxx1112basic_stringIcSt11char_traitsIcESaIcEEC1EOS4_(ptr noundef nonnull align 8 dereferenceable(32) %4, ptr noundef nonnull align 8 dereferenceable(32) %2) #19
  %5 = getelementptr inbounds i8, ptr %0, i64 40
  %6 = getelementptr inbounds i8, ptr %2, i64 32
  %7 = load i32, ptr %6, align 8
  store i32 %7, ptr %5, align 8
  ret void
}